; Function Attrs: mustprogress nofree norecurse nosync nounwind willreturn memory(none) uwtable
define range(i32 -1, 36) i32 @u_digit_77(i32 noundef %0, i8 noundef signext %1) local_unnamed_addr #0 {
  %3 = add i8 %1, -2
  %4 = icmp ult i8 %3, 35
  br i1 %4, label %5, label %58

5:                                                ; preds = %2
  %6 = icmp ult i32 %0, 55296
  br i1 %6, label %7, label %9

7:                                                ; preds = %5
  %8 = lshr i32 %0, 5
  br label %.sink.split.i

9:                                                ; preds = %5
  %10 = icmp ult i32 %0, 65536
  br i1 %10, label %11, label %16

11:                                               ; preds = %9
  %12 = icmp samesign ult i32 %0, 56320
  %13 = select i1 %12, i32 320, i32 0
  %14 = lshr i32 %0, 5
  %15 = add nuw nsw i32 %13, %14
  br label %.sink.split.i

16:                                               ; preds = %9
  %17 = icmp ugt i32 %0, 1114111
  br i1 %17, label %u_charDigitValue_77.exit, label %18

18:                                               ; preds = %16
  %19 = lshr i32 %0, 11
  %20 = zext nneg i32 %19 to i64
  %21 = getelementptr inbounds nuw i16, ptr @_ZL15propsTrie_index, i64 %20
  %22 = getelementptr inbounds nuw i8, ptr %21, i64 4160
  %23 = load i16, ptr %22, align 2, !tbaa !3
  %24 = zext i16 %23 to i32
  %25 = lshr i32 %0, 5
  %26 = and i32 %25, 63
  %27 = add nuw nsw i32 %26, %24
  br label %.sink.split.i

.sink.split.i:                                    ; preds = %18, %11, %7
  %.sink21.i = phi i32 [ %15, %11 ], [ %27, %18 ], [ %8, %7 ]
  %28 = zext nneg i32 %.sink21.i to i64
  %29 = getelementptr inbounds nuw i16, ptr @_ZL15propsTrie_index, i64 %28
  %30 = load i16, ptr %29, align 2, !tbaa !3
  %31 = zext i16 %30 to i32
  %32 = shl nuw nsw i32 %31, 2
  %33 = and i32 %0, 31
  %34 = add nuw nsw i32 %32, %33
  %35 = zext nneg i32 %34 to i64
  br label %u_charDigitValue_77.exit

u_charDigitValue_77.exit:                         ; preds = %16, %.sink.split.i
  %36 = phi i64 [ 4876, %16 ], [ %35, %.sink.split.i ]
  %37 = getelementptr inbounds nuw i16, ptr @_ZL15propsTrie_index, i64 %36
  %38 = load i16, ptr %37, align 2, !tbaa !3
  %39 = icmp ult i16 %38, 704
  %40 = lshr i16 %38, 6
  %41 = zext nneg i16 %40 to i32
  %42 = add nsw i32 %41, -1
  %.0.i = select i1 %39, i32 %42, i32 -1
  %sext.mask = and i32 %.0.i, 128
  %.not = icmp eq i32 %sext.mask, 0
  br i1 %.not, label %58, label %43

43:                                               ; preds = %u_charDigitValue_77.exit
  %44 = add i32 %0, -97
  %or.cond = icmp ult i32 %44, 26
  br i1 %or.cond, label %45, label %47

45:                                               ; preds = %43
  %46 = add nsw i32 %0, -87
  br label %58

47:                                               ; preds = %43
  %48 = add i32 %0, -65
  %or.cond3 = icmp ult i32 %48, 26
  br i1 %or.cond3, label %49, label %51

49:                                               ; preds = %47
  %50 = add nsw i32 %0, -55
  br label %58

51:                                               ; preds = %47
  %52 = add i32 %0, -65345
  %or.cond5 = icmp ult i32 %52, 26
  br i1 %or.cond5, label %53, label %55

53:                                               ; preds = %51
  %54 = add nsw i32 %0, -55
  br label %58

55:                                               ; preds = %51
  %56 = add i32 %0, -65313
  %or.cond7 = icmp ult i32 %56, 26
  %57 = add nsw i32 %0, -23
  %spec.select = select i1 %or.cond7, i32 %57, i32 %.0.i
  br label %58

58:                                               ; preds = %55, %2, %u_charDigitValue_77.exit, %49, %53, %45
  %.0 = phi i32 [ %46, %45 ], [ %50, %49 ], [ %54, %53 ], [ %42, %u_charDigitValue_77.exit ], [ %spec.select, %55 ], [ -1, %2 ]
  %59 = sext i8 %1 to i32
  %sext = shl i32 %.0, 24
  %60 = ashr exact i32 %sext, 24
  %61 = icmp slt i32 %60, %59
  %62 = select i1 %61, i32 %60, i32 -1
  ret i32 %62
}